; Function Attrs: mustprogress uwtable
define internal noundef i32 @_ZL15defaultGetValueRK11IntPropertyi9UProperty(ptr nocapture noundef nonnull readonly align 8 dereferenceable(32) %prop, i32 noundef %c, i32 %0) #0 {
entry:
  %1 = load i32, ptr %prop, align 8
  %call = tail call i32 @u_getUnicodeProperties_75(i32 noundef %c, i32 noundef %1)
  %mask = getelementptr inbounds i8, ptr %prop, i64 4
  %2 = load i32, ptr %mask, align 4
  %and = and i32 %2, %call
  %shift = getelementptr inbounds i8, ptr %prop, i64 8
  %3 = load i32, ptr %shift, align 8
  %shr = ashr i32 %and, %3
  ret i32 %shr
}